; Function Attrs: mustprogress nounwind uwtable
define dso_local void @_ZN18cmWorkerPoolWorkerD2Ev(ptr noundef nonnull align 8 dereferenceable(120) %0) unnamed_addr #2 align 2 personality ptr @__gxx_personality_v0 {
  %2 = getelementptr inbounds i8, ptr %0, i64 112
  %.sroa.0.0.copyload.i = load i64, ptr %2, align 8
  %.not = icmp eq i64 %.sroa.0.0.copyload.i, 0
  br i1 %.not, label %_ZNSt6threadD2Ev.exit, label %3

3:                                                ; preds = %1
  invoke void @_ZNSt6thread4joinEv(ptr noundef nonnull align 8 dereferenceable(8) %2)
          to label %4 unwind label %10

4:                                                ; preds = %3
  %.sroa.0.0.copyload.i.i.pr = load i64, ptr %2, align 8
  %.not.i = icmp eq i64 %.sroa.0.0.copyload.i.i.pr, 0
  br i1 %.not.i, label %_ZNSt6threadD2Ev.exit, label %5

5:                                                ; preds = %4
  tail call void @_ZSt9terminatev() #19
  unreachable

_ZNSt6threadD2Ev.exit:                            ; preds = %1, %4
  %6 = getelementptr inbounds i8, ptr %0, i64 104
  %7 = load ptr, ptr %6, align 8
  %.not.i.i = icmp eq ptr %7, null
  br i1 %.not.i.i, label %_ZN18cmWorkerPoolWorkerUt_D2Ev.exit, label %_ZNKSt14default_deleteI19cmUVReadOnlyProcessEclEPS0_.exit.i.i

_ZNKSt14default_deleteI19cmUVReadOnlyProcessEclEPS0_.exit.i.i: ; preds = %_ZNSt6threadD2Ev.exit
  tail call void @_ZN19cmUVReadOnlyProcessD2Ev(ptr noundef nonnull align 8 dereferenceable(488) %7) #20
  tail call void @_ZdlPv(ptr noundef nonnull %7) #23
  br label %_ZN18cmWorkerPoolWorkerUt_D2Ev.exit

_ZN18cmWorkerPoolWorkerUt_D2Ev.exit:              ; preds = %_ZNSt6threadD2Ev.exit, %_ZNKSt14default_deleteI19cmUVReadOnlyProcessEclEPS0_.exit.i.i
  store ptr null, ptr %6, align 8
  %8 = getelementptr inbounds i8, ptr %0, i64 56
  tail call void @_ZNSt18condition_variableD1Ev(ptr noundef nonnull align 8 dereferenceable(48) %8) #20
  %9 = getelementptr inbounds i8, ptr %0, i64 40
  tail call void @_ZN2cm19uv_handle_ptr_base_I10uv_async_sED2Ev(ptr noundef nonnull align 8 dereferenceable(16) %9) #20
  ret void

10:                                               ; preds = %3
  %11 = landingpad { ptr, i32 }
          catch ptr null
  %12 = extractvalue { ptr, i32 } %11, 0
  tail call void @__clang_call_terminate(ptr %12) #19
  unreachable
}